target datalayout = "e-m:e-p270:32:32-p271:32:32-p272:64:64-i64:64-i128:128-f80:128-n8:16:32:64-S128"
target triple = "x86_64-pc-linux-gnu"

%struct.SDL_VideoDevice = type { ptr, ptr, ptr, ptr, ptr, ptr, ptr, ptr, ptr, ptr, ptr, ptr, ptr, ptr, ptr, ptr, ptr, ptr, ptr, ptr, ptr, ptr, ptr, ptr, ptr, ptr, ptr, ptr, ptr, ptr, ptr, ptr, ptr, ptr, ptr, ptr, ptr, ptr, ptr, ptr, ptr, ptr, ptr, ptr, ptr, ptr, ptr, ptr, ptr, ptr, ptr, ptr, ptr, ptr, ptr, ptr, ptr, ptr, ptr, ptr, ptr, ptr, ptr, ptr, ptr, ptr, ptr, ptr, ptr, ptr, ptr, ptr, ptr, ptr, ptr, ptr, ptr, ptr, ptr, ptr, ptr, ptr, ptr, ptr, ptr, ptr, ptr, ptr, ptr, ptr, ptr, ptr, ptr, ptr, ptr, ptr, ptr, i64, i8, i8, i8, ptr, i32, ptr, %struct.SDL_Rect, ptr, ptr, i32, ptr, ptr, ptr, ptr, i64, ptr, i8, i32, i32, %struct.anon, ptr, ptr, ptr, ptr, ptr, ptr, %struct.SDL_AtomicInt, %struct.SDL_AtomicInt, i8, %struct.anon.0, ptr, ptr, ptr, ptr, ptr }
%struct.SDL_Rect = type { i32, i32, i32, i32 }
%struct.anon = type { i32, i32, i32, i32, i32, i32, i32, i32, i32, i32, i32, i32, i32, i32, i32, i32, i32, i32, i32, i32, i32, i32, i32, i32, i32, i32, i32, i32, i32, [256 x i8], ptr }
%struct.SDL_AtomicInt = type { i32 }
%struct.anon.0 = type { ptr, ptr, i32, [256 x i8], ptr }
%struct.SDL_VideoData = type { i8, ptr, i32, ptr, ptr, ptr, ptr, i32, %struct.anon.1, ptr, ptr, ptr, ptr, ptr, ptr, ptr, ptr, ptr, ptr, ptr, ptr, ptr, ptr, ptr, ptr, ptr, ptr, ptr, ptr, ptr, ptr, %struct.wl_list, ptr, ptr, ptr, ptr, i32, i32, i8, i8 }
%struct.anon.1 = type { ptr }
%struct.wl_list = type { ptr, ptr }
%struct.SDL_WaylandSeat = type { ptr, ptr, ptr, ptr, ptr, %struct.wl_list, i32, i32, %struct.anon.2, %struct.anon.4, %struct.anon.7, %struct.anon.8, %struct.anon.9 }
%struct.anon.2 = type { ptr, ptr, ptr, ptr, ptr, %struct.SDL_WaylandKeyboardRepeat, i64, i16, i16, i32, i8, %struct.anon.3 }
%struct.SDL_WaylandKeyboardRepeat = type { i32, i32, i32, i8, i8, i32, i64, i64, i64, i32, [8 x i8] }
%struct.anon.3 = type { ptr, ptr, ptr, ptr, i32, i32, i32, i32, i32, i32, i32, i32, i32, i32, i32 }
%struct.anon.4 = type { ptr, ptr, ptr, ptr, ptr, ptr, ptr, ptr, i64, i32, i32, %struct.SDL_Point, i32, %struct.anon.5, %struct.anon.6 }
%struct.SDL_Point = type { i32, i32 }
%struct.anon.5 = type { i32, float, i32, float, i64, i32 }
%struct.anon.6 = type { ptr, ptr, ptr, i64, i64, i32 }
%struct.anon.7 = type { ptr, ptr, i64, %struct.wl_list }
%struct.anon.8 = type { ptr, %struct.SDL_Rect, i8, i8 }
%struct.anon.9 = type { ptr, %struct.wl_list }

@WAYLAND_wl_list_empty = external global ptr, align 8
@text_mime_types = internal global [5 x ptr] [ptr @.str.1, ptr @.str.3, ptr @.str.4, ptr @.str.5, ptr @.str.6], align 16
@.str = private unnamed_addr constant [32 x i8] c"Primary selection not supported\00", align 1

; Function Attrs: nounwind uwtable
define hidden zeroext i1 @Wayland_SetPrimarySelectionText(ptr noundef %0, ptr noundef %1) #0 {
  %3 = alloca ptr, align 8
  %4 = alloca ptr, align 8
  %5 = alloca ptr, align 8
  %6 = alloca ptr, align 8
  %7 = alloca i8, align 1
  %8 = alloca ptr, align 8
  %9 = alloca ptr, align 8
  store ptr %0, ptr %3, align 8
  store ptr %1, ptr %4, align 8
  call void @llvm.lifetime.start.p0(i64 8, ptr %5) #3
  %10 = load ptr, ptr %3, align 8
  %11 = getelementptr inbounds nuw %struct.SDL_VideoDevice, ptr %10, i32 0, i32 128
  %12 = load ptr, ptr %11, align 8
  store ptr %12, ptr %5, align 8
  call void @llvm.lifetime.start.p0(i64 8, ptr %6) #3
  %13 = load ptr, ptr %5, align 8
  %14 = getelementptr inbounds nuw %struct.SDL_VideoData, ptr %13, i32 0, i32 32
  %15 = load ptr, ptr %14, align 8
  store ptr %15, ptr %6, align 8
  call void @llvm.lifetime.start.p0(i64 1, ptr %7) #3
  %16 = load ptr, ptr %6, align 8
  %17 = icmp ne ptr %16, null
  br i1 %17, label %30, label %18

18:                                               ; preds = %2
  %19 = load ptr, ptr @WAYLAND_wl_list_empty, align 8
  %20 = load ptr, ptr %5, align 8
  %21 = getelementptr inbounds nuw %struct.SDL_VideoData, ptr %20, i32 0, i32 31
  %22 = call i32 %19(ptr noundef %21)
  %23 = icmp ne i32 %22, 0
  br i1 %23, label %30, label %24

24:                                               ; preds = %18
  %25 = load ptr, ptr %5, align 8
  %26 = getelementptr inbounds nuw %struct.SDL_VideoData, ptr %25, i32 0, i32 31
  %27 = getelementptr inbounds nuw %struct.wl_list, ptr %26, i32 0, i32 1
  %28 = load ptr, ptr %27, align 8
  %29 = getelementptr inbounds i8, ptr %28, i64 -40
  store ptr %29, ptr %6, align 8
  br label %30

30:                                               ; preds = %24, %18, %2
  %31 = load ptr, ptr %6, align 8
  %32 = icmp ne ptr %31, null
  br i1 %32, label %33, label %67

33:                                               ; preds = %30
  %34 = load ptr, ptr %6, align 8
  %35 = getelementptr inbounds nuw %struct.SDL_WaylandSeat, ptr %34, i32 0, i32 3
  %36 = load ptr, ptr %35, align 8
  %37 = icmp ne ptr %36, null
  br i1 %37, label %38, label %67

38:                                               ; preds = %33
  call void @llvm.lifetime.start.p0(i64 8, ptr %8) #3
  %39 = load ptr, ptr %6, align 8
  %40 = getelementptr inbounds nuw %struct.SDL_WaylandSeat, ptr %39, i32 0, i32 3
  %41 = load ptr, ptr %40, align 8
  store ptr %41, ptr %8, align 8
  %42 = load ptr, ptr %4, align 8
  %43 = getelementptr inbounds i8, ptr %42, i64 0
  %44 = load i8, ptr %43, align 1
  %45 = sext i8 %44 to i32
  %46 = icmp ne i32 %45, 0
  br i1 %46, label %47, label %62

47:                                               ; preds = %38
  call void @llvm.lifetime.start.p0(i64 8, ptr %9) #3
  %48 = load ptr, ptr %3, align 8
  %49 = call ptr @Wayland_primary_selection_source_create(ptr noundef %48)
  store ptr %49, ptr %9, align 8
  %50 = load ptr, ptr %9, align 8
  %51 = load ptr, ptr %4, align 8
  %52 = call noalias ptr @SDL_strdup_REAL(ptr noundef %51)
  call void @Wayland_primary_selection_source_set_callback(ptr noundef %50, ptr noundef @SDL_ClipboardTextCallback, ptr noundef %52)
  %53 = load ptr, ptr %8, align 8
  %54 = load ptr, ptr %9, align 8
  %55 = call zeroext i1 @Wayland_primary_selection_device_set_selection(ptr noundef %53, ptr noundef %54, ptr noundef @text_mime_types, i64 noundef 5)
  %56 = zext i1 %55 to i8
  store i8 %56, ptr %7, align 1
  %57 = load i8, ptr %7, align 1, !range !3, !noundef !4
  %58 = trunc i8 %57 to i1
  br i1 %58, label %61, label %59

59:                                               ; preds = %47
  %60 = load ptr, ptr %9, align 8
  call void @Wayland_primary_selection_source_destroy(ptr noundef %60)
  br label %61

61:                                               ; preds = %59, %47
  call void @llvm.lifetime.end.p0(i64 8, ptr %9) #3
  br label %66

62:                                               ; preds = %38
  %63 = load ptr, ptr %8, align 8
  %64 = call zeroext i1 @Wayland_primary_selection_device_clear_selection(ptr noundef %63)
  %65 = zext i1 %64 to i8
  store i8 %65, ptr %7, align 1
  br label %66

66:                                               ; preds = %62, %61
  call void @llvm.lifetime.end.p0(i64 8, ptr %8) #3
  br label %70

67:                                               ; preds = %33, %30
  %68 = call zeroext i1 (ptr, ...) @SDL_SetError_REAL(ptr noundef @.str)
  %69 = zext i1 %68 to i8
  store i8 %69, ptr %7, align 1
  br label %70

70:                                               ; preds = %67, %66
  %71 = load i8, ptr %7, align 1, !range !3, !noundef !4
  %72 = trunc i8 %71 to i1
  call void @llvm.lifetime.end.p0(i64 1, ptr %7) #3
  call void @llvm.lifetime.end.p0(i64 8, ptr %6) #3
  call void @llvm.lifetime.end.p0(i64 8, ptr %5) #3
  ret i1 %72
}