; Function Attrs: nounwind uwtable
define hidden zeroext i1 @Wayland_SetPrimarySelectionText(ptr noundef %0, ptr noundef %1) local_unnamed_addr #0 {
  %3 = getelementptr inbounds nuw i8, ptr %0, i64 1656
  %4 = load ptr, ptr %3, align 8
  %5 = getelementptr inbounds nuw i8, ptr %4, i64 264
  %6 = load ptr, ptr %5, align 8
  %.not = icmp eq ptr %6, null
  br i1 %.not, label %7, label %15

7:                                                ; preds = %2
  %8 = load ptr, ptr @WAYLAND_wl_list_empty, align 8
  %9 = getelementptr inbounds nuw i8, ptr %4, i64 248
  %10 = tail call i32 %8(ptr noundef nonnull %9) #4
  %.not21 = icmp eq i32 %10, 0
  br i1 %.not21, label %11, label %27

11:                                               ; preds = %7
  %12 = getelementptr inbounds nuw i8, ptr %4, i64 256
  %13 = load ptr, ptr %12, align 8
  %14 = getelementptr inbounds i8, ptr %13, i64 -40
  br label %15

15:                                               ; preds = %2, %11
  %.0.ph = phi ptr [ %14, %11 ], [ %6, %2 ]
  %16 = getelementptr inbounds nuw i8, ptr %.0.ph, i64 24
  %17 = load ptr, ptr %16, align 8
  %.not23 = icmp eq ptr %17, null
  br i1 %.not23, label %27, label %18

18:                                               ; preds = %15
  %19 = load i8, ptr %1, align 1
  %.not24 = icmp eq i8 %19, 0
  br i1 %.not24, label %25, label %20

20:                                               ; preds = %18
  %21 = tail call ptr @Wayland_primary_selection_source_create(ptr noundef nonnull %0) #4
  %22 = tail call noalias ptr @SDL_strdup_REAL(ptr noundef nonnull %1) #4
  tail call void @Wayland_primary_selection_source_set_callback(ptr noundef %21, ptr noundef nonnull @SDL_ClipboardTextCallback, ptr noundef %22) #4
  %23 = tail call zeroext i1 @Wayland_primary_selection_device_set_selection(ptr noundef nonnull %17, ptr noundef %21, ptr noundef nonnull @text_mime_types, i64 noundef 5) #4
  br i1 %23, label %29, label %24

24:                                               ; preds = %20
  tail call void @Wayland_primary_selection_source_destroy(ptr noundef %21) #4
  br label %29

25:                                               ; preds = %18
  %26 = tail call zeroext i1 @Wayland_primary_selection_device_clear_selection(ptr noundef nonnull %17) #4
  br label %29

27:                                               ; preds = %7, %15
  %28 = tail call zeroext i1 (ptr, ...) @SDL_SetError_REAL(ptr noundef nonnull @.str) #4
  br label %29

29:                                               ; preds = %25, %24, %20, %27
  %.1.in = phi i1 [ %28, %27 ], [ %26, %25 ], [ false, %24 ], [ true, %20 ]
  ret i1 %.1.in
}